Certificate:
    Data:
        Version: 3 (0x2)
        Serial Number: 1 (0x1)
    Signature Algorithm: sha256WithRSAEncryption
        Issuer: C=FR, ST=Radius, L=Somewhere, O=Example Inc./emailAddress=admin@example.org, CN=Example Certificate Authority
        Validity
            Not Before: Mar  9 12:51:34 2021 GMT
            Not After : May  8 12:51:34 2021 GMT
        Subject: C=FR, ST=Radius, O=Example Inc., CN=Example Server Certificate/emailAddress=admin@example.org
        Subject Public Key Info:
            Public Key Algorithm: rsaEncryption
                Public-Key: (2048 bit)
                Modulus:
                    00:9d:e7:f1:04:17:6d:64:bc:41:70:be:1c:3e:02:
                    61:b1:5c:ec:14:cf:64:db:f7:a9:32:18:23:60:7d:
                    9e:eb:0d:7c:75:26:7d:9e:48:ce:a1:f0:f6:94:df:
                    fb:7f:64:d7:78:95:cf:3e:20:0f:f5:4b:31:fc:c5:
                    63:07:cc:1b:82:2e:8b:87:af:9e:8c:73:c6:62:d2:
                    52:42:31:3d:fa:87:74:49:c0:19:92:f7:c5:6d:3c:
                    6e:3b:9b:eb:23:08:be:cb:e4:be:ef:0b:aa:96:f6:
                    c6:9b:e3:52:bd:7b:6c:2a:a5:f4:e5:ea:d4:1c:73:
                    ee:07:20:5e:ce:45:76:b2:84:56:0e:b9:a8:3d:e5:
                    7a:1b:b8:cf:da:8e:74:26:a9:b1:a0:44:b2:f3:a9:
                    cb:29:72:ec:1f:9a:cc:6c:95:09:5f:06:4d:b0:7e:
                    ff:5f:1a:15:85:b7:67:e9:0a:54:4b:11:e8:f9:c3:
                    41:c9:f0:aa:3b:9f:94:b2:9b:d0:ac:2c:0e:6a:de:
                    35:cc:a6:01:76:ae:70:30:0a:aa:01:eb:d3:3c:9b:
                    7b:91:ea:fd:2f:74:2c:ab:3a:7a:13:6d:f4:d4:03:
                    d2:e1:4d:24:ac:3d:59:90:d0:14:1c:4d:9b:31:9d:
                    46:9f:4b:a8:03:54:2f:50:3b:21:52:bb:9e:9e:75:
                    c3:2f
                Exponent: 65537 (0x10001)
        X509v3 extensions:
            X509v3 Extended Key Usage: 
                TLS Web Server Authentication
            X509v3 CRL Distribution Points: 

                Full Name:
                  URI:http://www.example.com/example_ca.crl

    Signature Algorithm: sha256WithRSAEncryption
         7f:55:b9:8f:42:75:60:1a:2c:8f:7a:6c:2d:ca:f8:3b:e4:61:
         8f:ee:54:72:a9:1d:88:8d:75:64:c4:83:5d:43:2b:ec:2b:97:
         e9:8f:e6:5c:bb:cb:c6:45:8a:20:ca:ab:72:86:50:66:ac:08:
         64:83:fb:d5:bf:36:af:17:c5:ee:43:36:46:ad:23:ed:b8:ea:
         40:20:9d:3c:03:fe:f6:8b:05:78:55:43:ac:dc:35:17:4a:51:
         b0:6c:a9:a2:64:f8:0e:69:a1:52:fb:c6:9b:21:5c:d5:e6:aa:
         d9:17:5a:d2:69:44:5c:54:49:dc:9c:3c:9d:e2:06:fc:31:71:
         75:32:6e:ae:82:21:45:05:d4:d9:ba:4b:5b:dd:12:9a:68:aa:
         ac:5d:06:fd:fb:b4:be:98:9a:6e:30:d1:7e:76:27:79:f4:f8:
         ff:a1:1b:fb:05:4f:59:d4:a4:cc:9f:63:36:9d:a3:a5:e6:11:
         7e:be:95:7e:09:9e:a2:32:60:93:8d:52:85:d4:c9:fa:7d:f8:
         c0:65:f2:63:d9:46:01:5a:76:71:4c:cc:72:aa:b1:8c:f2:2a:
         a6:31:11:13:43:45:75:8b:cd:e8:54:d4:56:c2:6d:0e:a7:9d:
         ad:27:78:25:da:08:9a:81:1d:3c:af:9c:f7:29:63:f6:c5:88:
         cd:78:63:e0
-----BEGIN CERTIFICATE-----
MIID2jCCAsKgAwIBAgIBATANBgkqhkiG9w0BAQsFADCBkzELMAkGA1UEBhMCRlIx
DzANBgNVBAgMBlJhZGl1czESMBAGA1UEBwwJU29tZXdoZXJlMRUwEwYDVQQKDAxF
eGFtcGxlIEluYy4xIDAeBgkqhkiG9w0BCQEWEWFkbWluQGV4YW1wbGUub3JnMSYw
JAYDVQQDDB1FeGFtcGxlIENlcnRpZmljYXRlIEF1dGhvcml0eTAeFw0yMTAzMDkx
MjUxMzRaFw0yMTA1MDgxMjUxMzRaMHwxCzAJBgNVBAYTAkZSMQ8wDQYDVQQIDAZS
YWRpdXMxFTATBgNVBAoMDEV4YW1wbGUgSW5jLjEjMCEGA1UEAwwaRXhhbXBsZSBT
ZXJ2ZXIgQ2VydGlmaWNhdGUxIDAeBgkqhkiG9w0BCQEWEWFkbWluQGV4YW1wbGUu
b3JnMIIBIjANBgkqhkiG9w0BAQEFAAOCAQ8AMIIBCgKCAQEAnefxBBdtZLxBcL4c
PgJhsVzsFM9k2/epMhgjYH2e6w18dSZ9nkjOofD2lN/7f2TXeJXPPiAP9Usx/MVj
B8wbgi6Lh6+ejHPGYtJSQjE9+od0ScAZkvfFbTxuO5vrIwi+y+S+7wuqlvbGm+NS
vXtsKqX05erUHHPuByBezkV2soRWDrmoPeV6G7jP2o50JqmxoESy86nLKXLsH5rM
bJUJXwZNsH7/XxoVhbdn6QpUSxHo+cNByfCqO5+UspvQrCwOat41zKYBdq5wMAqq
AevTPJt7ker9L3Qsqzp6E2301APS4U0krD1ZkNAUHE2bMZ1Gn0uoA1QvUDshUrue
nnXDLwIDAQABo08wTTATBgNVHSUEDDAKBggrBgEFBQcDATA2BgNVHR8ELzAtMCug
KaAnhiVodHRwOi8vd3d3LmV4YW1wbGUuY29tL2V4YW1wbGVfY2EuY3JsMA0GCSqG
SIb3DQEBCwUAA4IBAQB/VbmPQnVgGiyPemwtyvg75GGP7lRyqR2IjXVkxINdQyvs
K5fpj+Zcu8vGRYogyqtyhlBmrAhkg/vVvzavF8XuQzZGrSPtuOpAIJ08A/72iwV4
VUOs3DUXSlGwbKmiZPgOaaFS+8abIVzV5qrZF1rSaURcVEncnDyd4gb8MXF1Mm6u
giFFBdTZuktb3RKaaKqsXQb9+7S+mJpuMNF+did59Pj/oRv7BU9Z1KTMn2M2naOl
5hF+vpV+CZ6iMmCTjVKF1Mn6ffjAZfJj2UYBWnZxTMxyqrGM8iqmMRETQ0V1i83o
VNRWwm0Op52tJ3gl2giagR08r5z3KWP2xYjNeGPg
-----END CERTIFICATE-----
