Certificate:
    Data:
        Version: 3 (0x2)
        Serial Number: 2 (0x2)
    Signature Algorithm: sha256WithRSAEncryption
        Issuer: C=FR, ST=Radius, L=Somewhere, O=Example Inc./emailAddress=admin@example.org, CN=Example Certificate Authority
        Validity
            Not Before: Mar  9 12:51:35 2021 GMT
            Not After : May  8 12:51:35 2021 GMT
        Subject: C=FR, ST=Radius, O=Example Inc., CN=user@example.org/emailAddress=user@example.org
        Subject Public Key Info:
            Public Key Algorithm: rsaEncryption
                Public-Key: (2048 bit)
                Modulus:
                    00:9e:6c:7f:ef:ca:42:02:52:21:d6:e1:d1:2e:9a:
                    91:9a:b5:67:2f:06:dc:c9:72:bb:1b:fd:a1:10:d7:
                    30:56:8e:25:2f:df:e8:4e:42:e0:f2:bc:23:73:3b:
                    9f:02:b5:b1:f4:07:df:9e:d2:3b:6f:78:29:2c:ea:
                    b1:f0:6e:92:5d:03:d6:a1:d6:7a:6e:cc:ce:c0:91:
                    f4:89:66:aa:6f:67:f6:22:bb:d1:3f:4a:88:9a:01:
                    7a:dc:2b:04:ee:92:9c:0c:b0:0d:29:e7:93:74:e0:
                    ef:cf:39:f7:ae:27:c3:62:68:18:c2:5c:a6:cd:40:
                    96:70:fa:39:b3:6e:aa:f7:d9:ff:b8:ae:7f:ce:54:
                    b0:63:bd:ac:d3:54:2e:24:70:01:a0:ec:2f:25:5f:
                    6b:80:a3:e8:ee:db:37:68:c8:a5:a9:ef:6a:a5:64:
                    3f:70:2f:43:cf:ed:d0:42:ec:d6:7e:0b:72:3f:af:
                    7f:26:fc:80:d8:4b:f5:97:90:f8:e6:0d:56:e7:7c:
                    ea:bc:07:f6:67:8d:58:d4:ea:e0:33:1d:c5:c8:6c:
                    d3:a0:00:6c:d8:dd:fe:6c:b6:e4:11:0b:5d:5d:34:
                    47:7a:2b:b9:16:3e:bc:38:cd:3b:53:be:9b:70:04:
                    b3:d0:7d:70:eb:a3:fe:ae:12:41:f1:f0:7d:40:14:
                    3a:bf
                Exponent: 65537 (0x10001)
        X509v3 extensions:
            X509v3 Extended Key Usage: 
                TLS Web Client Authentication
            X509v3 CRL Distribution Points: 

                Full Name:
                  URI:http://www.example.com/example_ca.crl

    Signature Algorithm: sha256WithRSAEncryption
         e2:b4:cc:13:7e:9a:9d:66:cd:f5:a8:f0:7c:19:d2:6a:e4:5c:
         dc:02:1b:d5:7f:34:f3:06:24:bd:94:19:5a:71:9c:01:2e:e8:
         07:84:c4:b6:77:d7:fd:a2:d8:d8:82:98:be:f1:39:19:a8:25:
         01:c5:5b:b7:4f:aa:8e:c5:7c:d4:a4:5d:51:39:bf:c5:dd:f5:
         e3:b1:20:15:84:f5:20:17:6c:76:61:fa:75:f5:74:b2:f3:a4:
         49:03:c2:3d:4b:d5:fb:c8:92:a6:e1:75:94:67:9c:c2:b8:24:
         3e:50:09:68:a2:8a:7c:36:b2:21:66:28:86:3f:9e:16:69:28:
         88:1b:44:ba:5f:1a:45:b6:b9:2a:46:c6:19:26:75:58:4f:45:
         9b:68:4f:e7:1e:f6:da:22:66:6b:ea:f5:63:c2:bb:1d:be:92:
         18:78:36:5c:c8:d3:ed:66:af:7e:1e:fe:84:a8:62:8d:72:b3:
         8e:7b:93:04:79:de:ca:b2:ac:a3:02:2b:4b:63:41:9f:e5:79:
         14:df:3f:f7:b4:94:84:ca:9f:73:14:13:cf:62:22:df:01:21:
         4e:74:5d:75:50:c2:f1:11:2b:ba:01:81:74:20:d8:2d:ad:f1:
         8d:7a:9a:11:7e:72:07:7e:f7:43:a1:fa:f9:3c:88:22:5f:69:
         2d:4f:62:48
-----BEGIN CERTIFICATE-----
MIIDzzCCAregAwIBAgIBAjANBgkqhkiG9w0BAQsFADCBkzELMAkGA1UEBhMCRlIx
DzANBgNVBAgMBlJhZGl1czESMBAGA1UEBwwJU29tZXdoZXJlMRUwEwYDVQQKDAxF
eGFtcGxlIEluYy4xIDAeBgkqhkiG9w0BCQEWEWFkbWluQGV4YW1wbGUub3JnMSYw
JAYDVQQDDB1FeGFtcGxlIENlcnRpZmljYXRlIEF1dGhvcml0eTAeFw0yMTAzMDkx
MjUxMzVaFw0yMTA1MDgxMjUxMzVaMHExCzAJBgNVBAYTAkZSMQ8wDQYDVQQIDAZS
YWRpdXMxFTATBgNVBAoMDEV4YW1wbGUgSW5jLjEZMBcGA1UEAwwQdXNlckBleGFt
cGxlLm9yZzEfMB0GCSqGSIb3DQEJARYQdXNlckBleGFtcGxlLm9yZzCCASIwDQYJ
KoZIhvcNAQEBBQADggEPADCCAQoCggEBAJ5sf+/KQgJSIdbh0S6akZq1Zy8G3Mly
uxv9oRDXMFaOJS/f6E5C4PK8I3M7nwK1sfQH357SO294KSzqsfBukl0D1qHWem7M
zsCR9Ilmqm9n9iK70T9KiJoBetwrBO6SnAywDSnnk3Tg7885964nw2JoGMJcps1A
lnD6ObNuqvfZ/7iuf85UsGO9rNNULiRwAaDsLyVfa4Cj6O7bN2jIpanvaqVkP3Av
Q8/t0ELs1n4Lcj+vfyb8gNhL9ZeQ+OYNVud86rwH9meNWNTq4DMdxchs06AAbNjd
/my25BELXV00R3oruRY+vDjNO1O+m3AEs9B9cOuj/q4SQfHwfUAUOr8CAwEAAaNP
ME0wEwYDVR0lBAwwCgYIKwYBBQUHAwIwNgYDVR0fBC8wLTAroCmgJ4YlaHR0cDov
L3d3dy5leGFtcGxlLmNvbS9leGFtcGxlX2NhLmNybDANBgkqhkiG9w0BAQsFAAOC
AQEA4rTME36anWbN9ajwfBnSauRc3AIb1X808wYkvZQZWnGcAS7oB4TEtnfX/aLY
2IKYvvE5GaglAcVbt0+qjsV81KRdUTm/xd3147EgFYT1IBdsdmH6dfV0svOkSQPC
PUvV+8iSpuF1lGecwrgkPlAJaKKKfDayIWYohj+eFmkoiBtEul8aRba5KkbGGSZ1
WE9Fm2hP5x722iJma+r1Y8K7Hb6SGHg2XMjT7Wavfh7+hKhijXKzjnuTBHneyrKs
owIrS2NBn+V5FN8/97SUhMqfcxQTz2Ii3wEhTnRddVDC8RErugGBdCDYLa3xjXqa
EX5yB373Q6H6+TyIIl9pLU9iSA==
-----END CERTIFICATE-----
